target datalayout = "e-m:e-p270:32:32-p271:32:32-p272:64:64-i64:64-i128:128-f80:128-n8:16:32:64-S128"
target triple = "x86_64-pc-linux-gnu"

%"struct.faiss::ScalarQuantizer::SQuantizer" = type { ptr }
%"struct.faiss::(anonymous namespace)::QuantizerTemplate.6" = type { %"struct.faiss::ScalarQuantizer::SQuantizer", i64, float, float }

; Function Attrs: mustprogress nounwind uwtable
define internal void @_ZNK5faiss12_GLOBAL__N_117QuantizerTemplateINS0_9Codec4bitELb1ELi1EE13encode_vectorEPKfPh(ptr noundef nonnull align 8 dereferenceable(24) %0, ptr noundef %1, ptr noundef %2) unnamed_addr #1 align 2 {
  %4 = alloca float, align 4
  %5 = alloca ptr, align 8
  %6 = alloca i32, align 4
  %7 = alloca ptr, align 8
  %8 = alloca ptr, align 8
  %9 = alloca ptr, align 8
  %10 = alloca i64, align 8
  %11 = alloca float, align 4
  store ptr %0, ptr %7, align 8
  store ptr %1, ptr %8, align 8
  store ptr %2, ptr %9, align 8
  %12 = load ptr, ptr %7, align 8
  store i64 0, ptr %10, align 8
  br label %13

13:                                               ; preds = %64, %3
  %14 = load i64, ptr %10, align 8
  %15 = getelementptr inbounds %"struct.faiss::(anonymous namespace)::QuantizerTemplate.6", ptr %12, i32 0, i32 1
  %16 = load i64, ptr %15, align 8
  %17 = icmp ult i64 %14, %16
  br i1 %17, label %18, label %67

18:                                               ; preds = %13
  store float 0.000000e+00, ptr %11, align 4
  %19 = getelementptr inbounds %"struct.faiss::(anonymous namespace)::QuantizerTemplate.6", ptr %12, i32 0, i32 3
  %20 = load float, ptr %19, align 4
  %21 = fcmp une float %20, 0.000000e+00
  br i1 %21, label %22, label %42

22:                                               ; preds = %18
  %23 = load ptr, ptr %8, align 8
  %24 = load i64, ptr %10, align 8
  %25 = getelementptr inbounds float, ptr %23, i64 %24
  %26 = load float, ptr %25, align 4
  %27 = getelementptr inbounds %"struct.faiss::(anonymous namespace)::QuantizerTemplate.6", ptr %12, i32 0, i32 2
  %28 = load float, ptr %27, align 8
  %29 = fsub float %26, %28
  %30 = getelementptr inbounds %"struct.faiss::(anonymous namespace)::QuantizerTemplate.6", ptr %12, i32 0, i32 3
  %31 = load float, ptr %30, align 4
  %32 = fdiv float %29, %31
  store float %32, ptr %11, align 4
  %33 = load float, ptr %11, align 4
  %34 = fcmp olt float %33, 0.000000e+00
  br i1 %34, label %35, label %36

35:                                               ; preds = %22
  store float 0.000000e+00, ptr %11, align 4
  br label %36

36:                                               ; preds = %35, %22
  %37 = load float, ptr %11, align 4
  %38 = fpext float %37 to double
  %39 = fcmp ogt double %38, 1.000000e+00
  br i1 %39, label %40, label %41

40:                                               ; preds = %36
  store float 1.000000e+00, ptr %11, align 4
  br label %41

41:                                               ; preds = %40, %36
  br label %42

42:                                               ; preds = %41, %18
  %43 = load float, ptr %11, align 4
  %44 = load ptr, ptr %9, align 8
  %45 = load i64, ptr %10, align 8
  %46 = trunc i64 %45 to i32
  store float %43, ptr %4, align 4
  store ptr %44, ptr %5, align 8
  store i32 %46, ptr %6, align 4
  %47 = load float, ptr %4, align 4
  %48 = fpext float %47 to double
  %49 = fmul double %48, 1.500000e+01
  %50 = fptosi double %49 to i32
  %51 = load i32, ptr %6, align 4
  %52 = and i32 %51, 1
  %53 = shl i32 %52, 2
  %54 = shl i32 %50, %53
  %55 = load ptr, ptr %5, align 8
  %56 = load i32, ptr %6, align 4
  %57 = sdiv i32 %56, 2
  %58 = sext i32 %57 to i64
  %59 = getelementptr inbounds i8, ptr %55, i64 %58
  %60 = load i8, ptr %59, align 1
  %61 = zext i8 %60 to i32
  %62 = or i32 %61, %54
  %63 = trunc i32 %62 to i8
  store i8 %63, ptr %59, align 1
  br label %64

64:                                               ; preds = %42
  %65 = load i64, ptr %10, align 8
  %66 = add i64 %65, 1
  store i64 %66, ptr %10, align 8
  br label %13, !llvm.loop !39

67:                                               ; preds = %13
  ret void
}