; Function Attrs: mustprogress nofree norecurse nosync nounwind memory(argmem: readwrite) uwtable
define internal void @_ZNK5faiss12_GLOBAL__N_117QuantizerTemplateINS0_9Codec4bitELb1ELi1EE13encode_vectorEPKfPh(ptr nocapture noundef nonnull readonly align 8 dereferenceable(24) %0, ptr nocapture noundef readonly %1, ptr nocapture noundef %2) unnamed_addr #17 align 2 {
  %4 = getelementptr inbounds i8, ptr %0, i64 8
  %5 = load i64, ptr %4, align 8
  %.not = icmp eq i64 %5, 0
  br i1 %.not, label %._crit_edge, label %.lr.ph

.lr.ph:                                           ; preds = %3
  %6 = getelementptr inbounds i8, ptr %0, i64 20
  %7 = getelementptr inbounds i8, ptr %0, i64 16
  br label %8

8:                                                ; preds = %.lr.ph, %20
  %.01316 = phi i64 [ 0, %.lr.ph ], [ %34, %20 ]
  %9 = load float, ptr %6, align 4
  %10 = fcmp une float %9, 0.000000e+00
  br i1 %10, label %11, label %20

11:                                               ; preds = %8
  %12 = getelementptr inbounds float, ptr %1, i64 %.01316
  %13 = load float, ptr %12, align 4
  %14 = load float, ptr %7, align 8
  %15 = fsub float %13, %14
  %16 = fdiv float %15, %9
  %17 = fcmp olt float %16, 0.000000e+00
  %.0 = select i1 %17, float 0.000000e+00, float %16
  %18 = fcmp ogt float %.0, 1.000000e+00
  br i1 %18, label %19, label %20

19:                                               ; preds = %11
  br label %20

20:                                               ; preds = %11, %19, %8
  %.1 = phi float [ 1.000000e+00, %19 ], [ %.0, %11 ], [ 0.000000e+00, %8 ]
  %21 = trunc i64 %.01316 to i32
  %22 = fpext float %.1 to double
  %23 = fmul double %22, 1.500000e+01
  %24 = fptosi double %23 to i32
  %25 = shl i32 %21, 2
  %26 = and i32 %25, 4
  %27 = shl i32 %24, %26
  %28 = sdiv i32 %21, 2
  %29 = sext i32 %28 to i64
  %30 = getelementptr inbounds i8, ptr %2, i64 %29
  %31 = load i8, ptr %30, align 1
  %32 = trunc i32 %27 to i8
  %33 = or i8 %31, %32
  store i8 %33, ptr %30, align 1
  %34 = add nuw i64 %.01316, 1
  %35 = load i64, ptr %4, align 8
  %36 = icmp ult i64 %34, %35
  br i1 %36, label %8, label %._crit_edge, !llvm.loop !38

._crit_edge:                                      ; preds = %20, %3
  ret void
}